; Function Attrs: nofree norecurse nosync nounwind memory(readwrite, inaccessiblemem: none) uwtable
define hidden void @Index12GrayToByteGrayScaleConvert(ptr noundef %0, ptr noundef %1, i32 noundef %2, i32 noundef %3, i32 noundef %4, i32 noundef %5, i32 noundef %6, i32 noundef %7, i32 noundef %8, ptr nocapture noundef readonly %9, ptr nocapture noundef readonly %10, ptr nocapture readnone %11, ptr nocapture readnone %12) #1 {
  %14 = getelementptr inbounds i8, ptr %9, i64 40
  %15 = load ptr, ptr %14, align 8
  %16 = getelementptr inbounds i8, ptr %9, i64 32
  %17 = load i32, ptr %16, align 8
  %18 = getelementptr inbounds i8, ptr %10, i64 32
  %19 = load i32, ptr %18, align 8
  %20 = sub i32 %19, %2
  %21 = sext i32 %20 to i64
  %22 = ptrtoint ptr %0 to i64
  %23 = sext i32 %17 to i64
  br label %24

24:                                               ; preds = %45, %13
  %.030 = phi ptr [ %1, %13 ], [ %47, %45 ]
  %.027 = phi i32 [ %5, %13 ], [ %48, %45 ]
  %.0 = phi i32 [ %3, %13 ], [ %49, %45 ]
  %25 = ashr i32 %.027, %8
  %26 = sext i32 %25 to i64
  %27 = mul nsw i64 %26, %23
  %28 = add nsw i64 %27, %22
  %29 = inttoptr i64 %28 to ptr
  br label %30

30:                                               ; preds = %30, %24
  %.1 = phi ptr [ %.030, %24 ], [ %42, %30 ]
  %.029 = phi i32 [ %2, %24 ], [ %44, %30 ]
  %.028 = phi i32 [ %4, %24 ], [ %43, %30 ]
  %31 = ashr i32 %.028, %8
  %32 = sext i32 %31 to i64
  %33 = getelementptr inbounds i16, ptr %29, i64 %32
  %34 = load i16, ptr %33, align 2
  %35 = and i16 %34, 4095
  %36 = zext nneg i16 %35 to i64
  %37 = getelementptr inbounds i32, ptr %15, i64 %36
  %38 = load i32, ptr %37, align 4
  %39 = trunc i32 %38 to i8
  store i8 %39, ptr %.1, align 1
  %40 = ptrtoint ptr %.1 to i64
  %41 = add nsw i64 %40, 1
  %42 = inttoptr i64 %41 to ptr
  %43 = add nsw i32 %.028, %6
  %44 = add i32 %.029, -1
  %.not = icmp eq i32 %44, 0
  br i1 %.not, label %45, label %30, !llvm.loop !35

45:                                               ; preds = %30
  %46 = add nsw i64 %41, %21
  %47 = inttoptr i64 %46 to ptr
  %48 = add nsw i32 %.027, %7
  %49 = add i32 %.0, -1
  %.not32 = icmp eq i32 %49, 0
  br i1 %.not32, label %50, label %24, !llvm.loop !36

50:                                               ; preds = %45
  ret void
}